; ModuleID = 'source-C-CXX/19/812.cpp'
source_filename = "source-C-CXX/19/812.cpp"
target datalayout = "e-m:e-p270:32:32-p271:32:32-p272:64:64-i64:64-f80:128-n8:16:32:64-S128"
target triple = "x86_64-pc-linux-gnu"

%"class.std::ios_base::Init" = type { i8 }
%"class.std::basic_ostream" = type { i32 (...)**, %"class.std::basic_ios" }
%"class.std::basic_ios" = type { %"class.std::ios_base", %"class.std::basic_ostream"*, i8, i8, %"class.std::basic_streambuf"*, %"class.std::ctype"*, %"class.std::num_put"*, %"class.std::num_get"* }
%"class.std::ios_base" = type { i32 (...)**, i64, i64, i32, i32, i32, %"struct.std::ios_base::_Callback_list"*, %"struct.std::ios_base::_Words", [8 x %"struct.std::ios_base::_Words"], i32, %"struct.std::ios_base::_Words"*, %"class.std::locale" }
%"struct.std::ios_base::_Callback_list" = type { %"struct.std::ios_base::_Callback_list"*, void (i32, %"class.std::ios_base"*, i32)*, i32, i32 }
%"struct.std::ios_base::_Words" = type { i8*, i64 }
%"class.std::locale" = type { %"class.std::locale::_Impl"* }
%"class.std::locale::_Impl" = type { i32, %"class.std::locale::facet"**, i64, %"class.std::locale::facet"**, i8** }
%"class.std::locale::facet" = type <{ i32 (...)**, i32, [4 x i8] }>
%"class.std::basic_streambuf" = type { i32 (...)**, i8*, i8*, i8*, i8*, i8*, i8*, %"class.std::locale" }
%"class.std::ctype" = type <{ %"class.std::locale::facet.base", [4 x i8], %struct.__locale_struct*, i8, [7 x i8], i32*, i32*, i16*, i8, [256 x i8], [256 x i8], i8, [6 x i8] }>
%"class.std::locale::facet.base" = type <{ i32 (...)**, i32 }>
%struct.__locale_struct = type { [13 x %struct.__locale_data*], i16*, i32*, i32*, [13 x i8*] }
%struct.__locale_data = type opaque
%"class.std::num_put" = type { %"class.std::locale::facet.base", [4 x i8] }
%"class.std::num_get" = type { %"class.std::locale::facet.base", [4 x i8] }
%"class.std::basic_istream" = type { i32 (...)**, i64, %"class.std::basic_ios" }

@_ZStL8__ioinit = internal global %"class.std::ios_base::Init" zeroinitializer, align 1
@__dso_handle = external hidden global i8
@_ZSt4cout = external global %"class.std::basic_ostream", align 8
@_ZSt3cin = external global %"class.std::basic_istream", align 8
@llvm.global_ctors = appending global [1 x { i32, void ()*, i8* }] [{ i32, void ()*, i8* } { i32 65535, void ()* @_GLOBAL__sub_I_812.cpp, i8* null }]

declare void @_ZNSt8ios_base4InitC1Ev(%"class.std::ios_base::Init"* nonnull align 1 dereferenceable(1)) unnamed_addr #0

; Function Attrs: nounwind
declare void @_ZNSt8ios_base4InitD1Ev(%"class.std::ios_base::Init"* nonnull align 1 dereferenceable(1)) unnamed_addr #1

; Function Attrs: nofree nounwind
declare i32 @__cxa_atexit(void (i8*)*, i8*, i8*) local_unnamed_addr #2

; Function Attrs: mustprogress sspstrong uwtable
define dso_local void @_Z5setinPcS_(i8* nocapture readonly %0, i8* %1) local_unnamed_addr #3 {
  %3 = alloca i8, align 1
  %4 = alloca i8, align 1
  %5 = load i8, i8* %0, align 1, !tbaa !5
  %6 = icmp eq i8 %5, 0
  br i1 %6, label %65, label %7

7:                                                ; preds = %2
  %8 = sext i8 %5 to i32
  br label %36

9:                                                ; preds = %36
  %10 = zext i32 %44 to i64
  br i1 %6, label %65, label %11

11:                                               ; preds = %9
  %12 = icmp eq i8* %1, null
  br i1 %12, label %13, label %50

13:                                               ; preds = %11, %31
  %14 = phi i64 [ %32, %31 ], [ 0, %11 ]
  %15 = phi i8 [ %34, %31 ], [ %5, %11 ]
  %16 = icmp eq i64 %14, %10
  br i1 %16, label %19, label %17

17:                                               ; preds = %13
  call void @llvm.lifetime.start.p0i8(i64 1, i8* nonnull %3)
  store i8 %15, i8* %3, align 1, !tbaa !5
  %18 = call nonnull align 8 dereferenceable(8) %"class.std::basic_ostream"* @_ZSt16__ostream_insertIcSt11char_traitsIcEERSt13basic_ostreamIT_T0_ES6_PKS3_l(%"class.std::basic_ostream"* nonnull align 8 dereferenceable(8) @_ZSt4cout, i8* nonnull %3, i64 1)
  call void @llvm.lifetime.end.p0i8(i64 1, i8* nonnull %3)
  br label %31

19:                                               ; preds = %13
  call void @llvm.lifetime.start.p0i8(i64 1, i8* nonnull %4)
  store i8 %15, i8* %4, align 1, !tbaa !5
  %20 = call nonnull align 8 dereferenceable(8) %"class.std::basic_ostream"* @_ZSt16__ostream_insertIcSt11char_traitsIcEERSt13basic_ostreamIT_T0_ES6_PKS3_l(%"class.std::basic_ostream"* nonnull align 8 dereferenceable(8) @_ZSt4cout, i8* nonnull %4, i64 1)
  call void @llvm.lifetime.end.p0i8(i64 1, i8* nonnull %4)
  %21 = load i8*, i8** bitcast (%"class.std::basic_ostream"* @_ZSt4cout to i8**), align 8, !tbaa !8
  %22 = getelementptr i8, i8* %21, i64 -24
  %23 = bitcast i8* %22 to i64*
  %24 = load i64, i64* %23, align 8
  %25 = getelementptr inbounds i8, i8* bitcast (%"class.std::basic_ostream"* @_ZSt4cout to i8*), i64 %24
  %26 = bitcast i8* %25 to %"class.std::basic_ios"*
  %27 = getelementptr inbounds i8, i8* %25, i64 32
  %28 = bitcast i8* %27 to i32*
  %29 = load i32, i32* %28, align 8, !tbaa !10
  %30 = or i32 %29, 1
  call void @_ZNSt9basic_iosIcSt11char_traitsIcEE5clearESt12_Ios_Iostate(%"class.std::basic_ios"* nonnull align 8 dereferenceable(264) %26, i32 %30)
  br label %31

31:                                               ; preds = %19, %17
  %32 = add nuw i64 %14, 1
  %33 = getelementptr inbounds i8, i8* %0, i64 %32
  %34 = load i8, i8* %33, align 1, !tbaa !5
  %35 = icmp eq i8 %34, 0
  br i1 %35, label %65, label %13, !llvm.loop !19

36:                                               ; preds = %7, %36
  %37 = phi i64 [ 0, %7 ], [ %46, %36 ]
  %38 = phi i8 [ %5, %7 ], [ %48, %36 ]
  %39 = phi i32 [ %8, %7 ], [ %45, %36 ]
  %40 = phi i32 [ 0, %7 ], [ %44, %36 ]
  %41 = sext i8 %38 to i32
  %42 = icmp slt i32 %39, %41
  %43 = trunc i64 %37 to i32
  %44 = select i1 %42, i32 %43, i32 %40
  %45 = select i1 %42, i32 %41, i32 %39
  %46 = add nuw nsw i64 %37, 1
  %47 = getelementptr inbounds i8, i8* %0, i64 %46
  %48 = load i8, i8* %47, align 1, !tbaa !5
  %49 = icmp eq i8 %48, 0
  br i1 %49, label %9, label %36, !llvm.loop !21

50:                                               ; preds = %11, %60
  %51 = phi i64 [ %61, %60 ], [ 0, %11 ]
  %52 = phi i8 [ %63, %60 ], [ %5, %11 ]
  %53 = icmp eq i64 %51, %10
  br i1 %53, label %54, label %58

54:                                               ; preds = %50
  call void @llvm.lifetime.start.p0i8(i64 1, i8* nonnull %4)
  store i8 %52, i8* %4, align 1, !tbaa !5
  %55 = call nonnull align 8 dereferenceable(8) %"class.std::basic_ostream"* @_ZSt16__ostream_insertIcSt11char_traitsIcEERSt13basic_ostreamIT_T0_ES6_PKS3_l(%"class.std::basic_ostream"* nonnull align 8 dereferenceable(8) @_ZSt4cout, i8* nonnull %4, i64 1)
  call void @llvm.lifetime.end.p0i8(i64 1, i8* nonnull %4)
  %56 = call i64 @strlen(i8* noundef nonnull dereferenceable(1) %1) #10
  %57 = call nonnull align 8 dereferenceable(8) %"class.std::basic_ostream"* @_ZSt16__ostream_insertIcSt11char_traitsIcEERSt13basic_ostreamIT_T0_ES6_PKS3_l(%"class.std::basic_ostream"* nonnull align 8 dereferenceable(8) @_ZSt4cout, i8* nonnull %1, i64 %56)
  br label %60

58:                                               ; preds = %50
  call void @llvm.lifetime.start.p0i8(i64 1, i8* nonnull %3)
  store i8 %52, i8* %3, align 1, !tbaa !5
  %59 = call nonnull align 8 dereferenceable(8) %"class.std::basic_ostream"* @_ZSt16__ostream_insertIcSt11char_traitsIcEERSt13basic_ostreamIT_T0_ES6_PKS3_l(%"class.std::basic_ostream"* nonnull align 8 dereferenceable(8) @_ZSt4cout, i8* nonnull %3, i64 1)
  call void @llvm.lifetime.end.p0i8(i64 1, i8* nonnull %3)
  br label %60

60:                                               ; preds = %54, %58
  %61 = add nuw i64 %51, 1
  %62 = getelementptr inbounds i8, i8* %0, i64 %61
  %63 = load i8, i8* %62, align 1, !tbaa !5
  %64 = icmp eq i8 %63, 0
  br i1 %64, label %65, label %50, !llvm.loop !19

65:                                               ; preds = %60, %31, %2, %9
  %66 = load i8*, i8** bitcast (%"class.std::basic_ostream"* @_ZSt4cout to i8**), align 8, !tbaa !8
  %67 = getelementptr i8, i8* %66, i64 -24
  %68 = bitcast i8* %67 to i64*
  %69 = load i64, i64* %68, align 8
  %70 = add nsw i64 %69, 240
  %71 = getelementptr inbounds i8, i8* bitcast (%"class.std::basic_ostream"* @_ZSt4cout to i8*), i64 %70
  %72 = bitcast i8* %71 to %"class.std::ctype"**
  %73 = load %"class.std::ctype"*, %"class.std::ctype"** %72, align 8, !tbaa !22
  %74 = icmp eq %"class.std::ctype"* %73, null
  br i1 %74, label %75, label %76

75:                                               ; preds = %65
  call void @_ZSt16__throw_bad_castv() #11
  unreachable

76:                                               ; preds = %65
  %77 = getelementptr inbounds %"class.std::ctype", %"class.std::ctype"* %73, i64 0, i32 8
  %78 = load i8, i8* %77, align 8, !tbaa !25
  %79 = icmp eq i8 %78, 0
  br i1 %79, label %83, label %80

80:                                               ; preds = %76
  %81 = getelementptr inbounds %"class.std::ctype", %"class.std::ctype"* %73, i64 0, i32 9, i64 10
  %82 = load i8, i8* %81, align 1, !tbaa !5
  br label %89

83:                                               ; preds = %76
  call void @_ZNKSt5ctypeIcE13_M_widen_initEv(%"class.std::ctype"* nonnull align 8 dereferenceable(570) %73)
  %84 = bitcast %"class.std::ctype"* %73 to i8 (%"class.std::ctype"*, i8)***
  %85 = load i8 (%"class.std::ctype"*, i8)**, i8 (%"class.std::ctype"*, i8)*** %84, align 8, !tbaa !8
  %86 = getelementptr inbounds i8 (%"class.std::ctype"*, i8)*, i8 (%"class.std::ctype"*, i8)** %85, i64 6
  %87 = load i8 (%"class.std::ctype"*, i8)*, i8 (%"class.std::ctype"*, i8)** %86, align 8
  %88 = call signext i8 %87(%"class.std::ctype"* nonnull align 8 dereferenceable(570) %73, i8 signext 10)
  br label %89

89:                                               ; preds = %80, %83
  %90 = phi i8 [ %82, %80 ], [ %88, %83 ]
  %91 = call nonnull align 8 dereferenceable(8) %"class.std::basic_ostream"* @_ZNSo3putEc(%"class.std::basic_ostream"* nonnull align 8 dereferenceable(8) @_ZSt4cout, i8 signext %90)
  %92 = call nonnull align 8 dereferenceable(8) %"class.std::basic_ostream"* @_ZNSo5flushEv(%"class.std::basic_ostream"* nonnull align 8 dereferenceable(8) %91)
  ret void
}

; Function Attrs: argmemonly mustprogress nofree nosync nounwind willreturn
declare void @llvm.lifetime.start.p0i8(i64 immarg, i8* nocapture) #4

; Function Attrs: argmemonly mustprogress nofree nosync nounwind willreturn
declare void @llvm.lifetime.end.p0i8(i64 immarg, i8* nocapture) #4

; Function Attrs: mustprogress norecurse sspstrong uwtable
define dso_local i32 @main() local_unnamed_addr #5 {
  %1 = alloca [11 x i8], align 1
  %2 = alloca i32, align 4
  %3 = getelementptr inbounds [11 x i8], [11 x i8]* %1, i64 0, i64 0
  call void @llvm.lifetime.start.p0i8(i64 11, i8* nonnull %3) #10
  call void @llvm.memset.p0i8.i64(i8* noundef nonnull align 1 dereferenceable(11) %3, i8 0, i64 11, i1 false)
  %4 = bitcast i32* %2 to i8*
  call void @llvm.lifetime.start.p0i8(i64 4, i8* nonnull %4) #10
  store i32 0, i32* %2, align 4
  call void @_ZSt17__istream_extractRSiPcl(%"class.std::basic_istream"* nonnull align 8 dereferenceable(16) @_ZSt3cin, i8* nonnull %3, i64 11)
  call void @_ZSt17__istream_extractRSiPcl(%"class.std::basic_istream"* nonnull align 8 dereferenceable(16) @_ZSt3cin, i8* nonnull %4, i64 4)
  %5 = load i8*, i8** bitcast (%"class.std::basic_istream"* @_ZSt3cin to i8**), align 8, !tbaa !8
  %6 = getelementptr i8, i8* %5, i64 -24
  %7 = bitcast i8* %6 to i64*
  %8 = load i64, i64* %7, align 8
  %9 = add nsw i64 %8, 32
  %10 = getelementptr inbounds i8, i8* bitcast (%"class.std::basic_istream"* @_ZSt3cin to i8*), i64 %9
  %11 = bitcast i8* %10 to i32*
  %12 = load i32, i32* %11, align 8, !tbaa !10
  %13 = and i32 %12, 5
  %14 = icmp eq i32 %13, 0
  br i1 %14, label %15, label %26

15:                                               ; preds = %0, %15
  call void @_Z5setinPcS_(i8* nonnull %3, i8* nonnull %4)
  call void @_ZSt17__istream_extractRSiPcl(%"class.std::basic_istream"* nonnull align 8 dereferenceable(16) @_ZSt3cin, i8* nonnull %3, i64 11)
  call void @_ZSt17__istream_extractRSiPcl(%"class.std::basic_istream"* nonnull align 8 dereferenceable(16) @_ZSt3cin, i8* nonnull %4, i64 4)
  %16 = load i8*, i8** bitcast (%"class.std::basic_istream"* @_ZSt3cin to i8**), align 8, !tbaa !8
  %17 = getelementptr i8, i8* %16, i64 -24
  %18 = bitcast i8* %17 to i64*
  %19 = load i64, i64* %18, align 8
  %20 = add nsw i64 %19, 32
  %21 = getelementptr inbounds i8, i8* bitcast (%"class.std::basic_istream"* @_ZSt3cin to i8*), i64 %20
  %22 = bitcast i8* %21 to i32*
  %23 = load i32, i32* %22, align 8, !tbaa !10
  %24 = and i32 %23, 5
  %25 = icmp eq i32 %24, 0
  br i1 %25, label %15, label %26, !llvm.loop !27

26:                                               ; preds = %15, %0
  call void @llvm.lifetime.end.p0i8(i64 4, i8* nonnull %4) #10
  call void @llvm.lifetime.end.p0i8(i64 11, i8* nonnull %3) #10
  ret i32 0
}

; Function Attrs: argmemonly mustprogress nofree nounwind willreturn writeonly
declare void @llvm.memset.p0i8.i64(i8* nocapture writeonly, i8, i64, i1 immarg) #6

declare nonnull align 8 dereferenceable(8) %"class.std::basic_ostream"* @_ZSt16__ostream_insertIcSt11char_traitsIcEERSt13basic_ostreamIT_T0_ES6_PKS3_l(%"class.std::basic_ostream"* nonnull align 8 dereferenceable(8), i8*, i64) local_unnamed_addr #0

declare void @_ZNSt9basic_iosIcSt11char_traitsIcEE5clearESt12_Ios_Iostate(%"class.std::basic_ios"* nonnull align 8 dereferenceable(264), i32) local_unnamed_addr #0

; Function Attrs: argmemonly mustprogress nofree nounwind readonly willreturn
declare i64 @strlen(i8* nocapture) local_unnamed_addr #7

declare nonnull align 8 dereferenceable(8) %"class.std::basic_ostream"* @_ZNSo3putEc(%"class.std::basic_ostream"* nonnull align 8 dereferenceable(8), i8 signext) local_unnamed_addr #0

declare nonnull align 8 dereferenceable(8) %"class.std::basic_ostream"* @_ZNSo5flushEv(%"class.std::basic_ostream"* nonnull align 8 dereferenceable(8)) local_unnamed_addr #0

; Function Attrs: noreturn
declare void @_ZSt16__throw_bad_castv() local_unnamed_addr #8

declare void @_ZNKSt5ctypeIcE13_M_widen_initEv(%"class.std::ctype"* nonnull align 8 dereferenceable(570)) local_unnamed_addr #0

declare void @_ZSt17__istream_extractRSiPcl(%"class.std::basic_istream"* nonnull align 8 dereferenceable(16), i8*, i64) local_unnamed_addr #0

; Function Attrs: sspstrong uwtable
define internal void @_GLOBAL__sub_I_812.cpp() #9 section ".text.startup" {
  tail call void @_ZNSt8ios_base4InitC1Ev(%"class.std::ios_base::Init"* nonnull align 1 dereferenceable(1) @_ZStL8__ioinit)
  %1 = tail call i32 @__cxa_atexit(void (i8*)* bitcast (void (%"class.std::ios_base::Init"*)* @_ZNSt8ios_base4InitD1Ev to void (i8*)*), i8* getelementptr inbounds (%"class.std::ios_base::Init", %"class.std::ios_base::Init"* @_ZStL8__ioinit, i64 0, i32 0), i8* nonnull @__dso_handle) #10
  ret void
}


!llvm.module.flags = !{!0, !1, !2, !3}
!llvm.ident = !{!4}

!0 = !{i32 1, !"wchar_size", i32 4}
!1 = !{i32 7, !"PIC Level", i32 2}
!2 = !{i32 7, !"PIE Level", i32 2}
!3 = !{i32 7, !"uwtable", i32 1}
!4 = !{!"clang version 13.0.0"}
!5 = !{!6, !6, i64 0}
!6 = !{!"omnipotent char", !7, i64 0}
!7 = !{!"Simple C++ TBAA"}
!8 = !{!9, !9, i64 0}
!9 = !{!"vtable pointer", !7, i64 0}
!10 = !{!11, !14, i64 32}
!11 = !{!"_ZTSSt8ios_base", !12, i64 8, !12, i64 16, !13, i64 24, !14, i64 28, !14, i64 32, !15, i64 40, !16, i64 48, !6, i64 64, !17, i64 192, !15, i64 200, !18, i64 208}
!12 = !{!"long", !6, i64 0}
!13 = !{!"_ZTSSt13_Ios_Fmtflags", !6, i64 0}
!14 = !{!"_ZTSSt12_Ios_Iostate", !6, i64 0}
!15 = !{!"any pointer", !6, i64 0}
!16 = !{!"_ZTSNSt8ios_base6_WordsE", !15, i64 0, !12, i64 8}
!17 = !{!"int", !6, i64 0}
!18 = !{!"_ZTSSt6locale", !15, i64 0}
!19 = distinct !{!19, !20}
!20 = !{!"llvm.loop.mustprogress"}
!21 = distinct !{!21, !20}
!22 = !{!23, !15, i64 240}
!23 = !{!"_ZTSSt9basic_iosIcSt11char_traitsIcEE", !15, i64 216, !6, i64 224, !24, i64 225, !15, i64 232, !15, i64 240, !15, i64 248, !15, i64 256}
!24 = !{!"bool", !6, i64 0}
!25 = !{!26, !6, i64 56}
!26 = !{!"_ZTSSt5ctypeIcE", !15, i64 16, !24, i64 24, !15, i64 32, !15, i64 40, !15, i64 48, !6, i64 56, !6, i64 57, !6, i64 313, !6, i64 569}
!27 = distinct !{!27, !20}
